; ModuleID = '21/262.c'
source_filename = "21/262.c"
target datalayout = "e-m:e-p270:32:32-p271:32:32-p272:64:64-i64:64-f80:128-n8:16:32:64-S128"
target triple = "x86_64-pc-linux-gnu"

@.str = private unnamed_addr constant [3 x i8] c"%d\00", align 1
@.str.1 = private unnamed_addr constant [4 x i8] c",%d\00", align 1

; Function Attrs: noinline nounwind uwtable
define dso_local void @main() #0 {
  %1 = alloca i32, align 4
  %2 = alloca [300 x i32], align 16
  %3 = alloca i32, align 4
  %4 = alloca [300 x i32], align 16
  %5 = alloca i32, align 4
  %6 = alloca i32, align 4
  %7 = alloca double, align 8
  %8 = alloca double, align 8
  %9 = alloca double, align 8
  store double 0.000000e+00, double* %7, align 8
  %10 = call i32 (i8*, ...) @__isoc99_scanf(i8* getelementptr inbounds ([3 x i8], [3 x i8]* @.str, i64 0, i64 0), i32* %1)
  store i32 0, i32* %3, align 4
  br label %11

11:                                               ; preds = %27, %0
  %12 = load i32, i32* %3, align 4
  %13 = load i32, i32* %1, align 4
  %14 = icmp slt i32 %12, %13
  br i1 %14, label %15, label %30

15:                                               ; preds = %11
  %16 = load i32, i32* %3, align 4
  %17 = sext i32 %16 to i64
  %18 = getelementptr inbounds [300 x i32], [300 x i32]* %2, i64 0, i64 %17
  %19 = call i32 (i8*, ...) @__isoc99_scanf(i8* getelementptr inbounds ([3 x i8], [3 x i8]* @.str, i64 0, i64 0), i32* %18)
  %20 = load double, double* %7, align 8
  %21 = load i32, i32* %3, align 4
  %22 = sext i32 %21 to i64
  %23 = getelementptr inbounds [300 x i32], [300 x i32]* %2, i64 0, i64 %22
  %24 = load i32, i32* %23, align 4
  %25 = sitofp i32 %24 to double
  %26 = fadd double %20, %25
  store double %26, double* %7, align 8
  br label %27

27:                                               ; preds = %15
  %28 = load i32, i32* %3, align 4
  %29 = add nsw i32 %28, 1
  store i32 %29, i32* %3, align 4
  br label %11

30:                                               ; preds = %11
  %31 = load double, double* %7, align 8
  %32 = load i32, i32* %1, align 4
  %33 = sitofp i32 %32 to double
  %34 = fdiv double %31, %33
  store double %34, double* %8, align 8
  %35 = getelementptr inbounds [300 x i32], [300 x i32]* %2, i64 0, i64 0
  %36 = load i32, i32* %35, align 16
  %37 = sitofp i32 %36 to double
  %38 = load double, double* %8, align 8
  %39 = fsub double %37, %38
  %40 = call double @llvm.fabs.f64(double %39)
  store double %40, double* %9, align 8
  store i32 0, i32* %5, align 4
  store i32 1, i32* %3, align 4
  br label %41

41:                                               ; preds = %66, %30
  %42 = load i32, i32* %3, align 4
  %43 = load i32, i32* %1, align 4
  %44 = icmp slt i32 %42, %43
  br i1 %44, label %45, label %69

45:                                               ; preds = %41
  %46 = load double, double* %9, align 8
  %47 = load i32, i32* %3, align 4
  %48 = sext i32 %47 to i64
  %49 = getelementptr inbounds [300 x i32], [300 x i32]* %2, i64 0, i64 %48
  %50 = load i32, i32* %49, align 4
  %51 = sitofp i32 %50 to double
  %52 = load double, double* %8, align 8
  %53 = fsub double %51, %52
  %54 = call double @llvm.fabs.f64(double %53)
  %55 = fcmp olt double %46, %54
  br i1 %55, label %56, label %65

56:                                               ; preds = %45
  %57 = load i32, i32* %3, align 4
  %58 = sext i32 %57 to i64
  %59 = getelementptr inbounds [300 x i32], [300 x i32]* %2, i64 0, i64 %58
  %60 = load i32, i32* %59, align 4
  %61 = sitofp i32 %60 to double
  %62 = load double, double* %8, align 8
  %63 = fsub double %61, %62
  %64 = call double @llvm.fabs.f64(double %63)
  store double %64, double* %9, align 8
  br label %65

65:                                               ; preds = %56, %45
  br label %66

66:                                               ; preds = %65
  %67 = load i32, i32* %3, align 4
  %68 = add nsw i32 %67, 1
  store i32 %68, i32* %3, align 4
  br label %41

69:                                               ; preds = %41
  store i32 0, i32* %3, align 4
  br label %70

70:                                               ; preds = %96, %69
  %71 = load i32, i32* %3, align 4
  %72 = load i32, i32* %1, align 4
  %73 = icmp slt i32 %71, %72
  br i1 %73, label %74, label %99

74:                                               ; preds = %70
  %75 = load i32, i32* %3, align 4
  %76 = sext i32 %75 to i64
  %77 = getelementptr inbounds [300 x i32], [300 x i32]* %2, i64 0, i64 %76
  %78 = load i32, i32* %77, align 4
  %79 = sitofp i32 %78 to double
  %80 = load double, double* %8, align 8
  %81 = fsub double %79, %80
  %82 = call double @llvm.fabs.f64(double %81)
  %83 = load double, double* %9, align 8
  %84 = fcmp oeq double %82, %83
  br i1 %84, label %85, label %95

85:                                               ; preds = %74
  %86 = load i32, i32* %3, align 4
  %87 = sext i32 %86 to i64
  %88 = getelementptr inbounds [300 x i32], [300 x i32]* %2, i64 0, i64 %87
  %89 = load i32, i32* %88, align 4
  %90 = load i32, i32* %5, align 4
  %91 = sext i32 %90 to i64
  %92 = getelementptr inbounds [300 x i32], [300 x i32]* %4, i64 0, i64 %91
  store i32 %89, i32* %92, align 4
  %93 = load i32, i32* %5, align 4
  %94 = add nsw i32 %93, 1
  store i32 %94, i32* %5, align 4
  br label %95

95:                                               ; preds = %85, %74
  br label %96

96:                                               ; preds = %95
  %97 = load i32, i32* %3, align 4
  %98 = add nsw i32 %97, 1
  store i32 %98, i32* %3, align 4
  br label %70

99:                                               ; preds = %70
  %100 = load i32, i32* %5, align 4
  store i32 %100, i32* %6, align 4
  store i32 0, i32* %3, align 4
  br label %101

101:                                              ; preds = %142, %99
  %102 = load i32, i32* %3, align 4
  %103 = load i32, i32* %6, align 4
  %104 = icmp slt i32 %102, %103
  br i1 %104, label %105, label %145

105:                                              ; preds = %101
  %106 = load i32, i32* %3, align 4
  store i32 %106, i32* %5, align 4
  br label %107

107:                                              ; preds = %138, %105
  %108 = load i32, i32* %5, align 4
  %109 = load i32, i32* %6, align 4
  %110 = icmp slt i32 %108, %109
  br i1 %110, label %111, label %141

111:                                              ; preds = %107
  %112 = load i32, i32* %3, align 4
  %113 = sext i32 %112 to i64
  %114 = getelementptr inbounds [300 x i32], [300 x i32]* %4, i64 0, i64 %113
  %115 = load i32, i32* %114, align 4
  %116 = load i32, i32* %5, align 4
  %117 = sext i32 %116 to i64
  %118 = getelementptr inbounds [300 x i32], [300 x i32]* %4, i64 0, i64 %117
  %119 = load i32, i32* %118, align 4
  %120 = icmp sgt i32 %115, %119
  br i1 %120, label %121, label %137

121:                                              ; preds = %111
  %122 = load i32, i32* %3, align 4
  %123 = sext i32 %122 to i64
  %124 = getelementptr inbounds [300 x i32], [300 x i32]* %4, i64 0, i64 %123
  %125 = load i32, i32* %124, align 4
  store i32 %125, i32* %1, align 4
  %126 = load i32, i32* %5, align 4
  %127 = sext i32 %126 to i64
  %128 = getelementptr inbounds [300 x i32], [300 x i32]* %4, i64 0, i64 %127
  %129 = load i32, i32* %128, align 4
  %130 = load i32, i32* %3, align 4
  %131 = sext i32 %130 to i64
  %132 = getelementptr inbounds [300 x i32], [300 x i32]* %4, i64 0, i64 %131
  store i32 %129, i32* %132, align 4
  %133 = load i32, i32* %1, align 4
  %134 = load i32, i32* %5, align 4
  %135 = sext i32 %134 to i64
  %136 = getelementptr inbounds [300 x i32], [300 x i32]* %4, i64 0, i64 %135
  store i32 %133, i32* %136, align 4
  br label %137

137:                                              ; preds = %121, %111
  br label %138

138:                                              ; preds = %137
  %139 = load i32, i32* %5, align 4
  %140 = add nsw i32 %139, 1
  store i32 %140, i32* %5, align 4
  br label %107

141:                                              ; preds = %107
  br label %142

142:                                              ; preds = %141
  %143 = load i32, i32* %3, align 4
  %144 = add nsw i32 %143, 1
  store i32 %144, i32* %3, align 4
  br label %101

145:                                              ; preds = %101
  %146 = getelementptr inbounds [300 x i32], [300 x i32]* %4, i64 0, i64 0
  %147 = load i32, i32* %146, align 16
  %148 = call i32 (i8*, ...) @printf(i8* getelementptr inbounds ([3 x i8], [3 x i8]* @.str, i64 0, i64 0), i32 %147)
  store i32 1, i32* %3, align 4
  br label %149

149:                                              ; preds = %159, %145
  %150 = load i32, i32* %3, align 4
  %151 = load i32, i32* %5, align 4
  %152 = icmp slt i32 %150, %151
  br i1 %152, label %153, label %162

153:                                              ; preds = %149
  %154 = load i32, i32* %3, align 4
  %155 = sext i32 %154 to i64
  %156 = getelementptr inbounds [300 x i32], [300 x i32]* %4, i64 0, i64 %155
  %157 = load i32, i32* %156, align 4
  %158 = call i32 (i8*, ...) @printf(i8* getelementptr inbounds ([4 x i8], [4 x i8]* @.str.1, i64 0, i64 0), i32 %157)
  br label %159

159:                                              ; preds = %153
  %160 = load i32, i32* %3, align 4
  %161 = add nsw i32 %160, 1
  store i32 %161, i32* %3, align 4
  br label %149

162:                                              ; preds = %149
  ret void
}

declare dso_local i32 @__isoc99_scanf(i8*, ...) #1

; Function Attrs: nounwind readnone speculatable willreturn
declare double @llvm.fabs.f64(double) #2

declare dso_local i32 @printf(i8*, ...) #1


!llvm.module.flags = !{!0}
!llvm.ident = !{!1}

!0 = !{i32 1, !"wchar_size", i32 4}
!1 = !{!"clang version 10.0.0-4ubuntu1 "}
